; Function Attrs: mustprogress nofree nounwind willreturn memory(argmem: read) uwtable
define dso_local noundef zeroext i1 @_ZN4llvm9MCContext39isELFImplicitMergeableSectionNamePrefixENS_9StringRefE(ptr nocapture noundef nonnull readnone align 8 dereferenceable(2432) %0, ptr nocapture readonly %1, i64 %2) local_unnamed_addr #7 align 2 {
  %.not.i = icmp ult i64 %2, 11
  br i1 %.not.i, label %_ZNK4llvm9StringRef11starts_withES0_.exit3, label %_ZNK4llvm9StringRef11starts_withES0_.exit

_ZNK4llvm9StringRef11starts_withES0_.exit:        ; preds = %3
  %bcmp.i = tail call i32 @bcmp(ptr noundef nonnull dereferenceable(11) %1, ptr noundef nonnull dereferenceable(11) @.str.12, i64 11)
  %4 = icmp eq i32 %bcmp.i, 0
  br i1 %4, label %_ZNK4llvm9StringRef11starts_withES0_.exit3, label %_ZNK4llvm9StringRef11starts_withES0_.exit.thread9

_ZNK4llvm9StringRef11starts_withES0_.exit.thread9: ; preds = %_ZNK4llvm9StringRef11starts_withES0_.exit
  %bcmp.i2 = tail call i32 @bcmp(ptr noundef nonnull dereferenceable(11) %1, ptr noundef nonnull dereferenceable(11) @.str.13, i64 11)
  %5 = icmp eq i32 %bcmp.i2, 0
  br label %_ZNK4llvm9StringRef11starts_withES0_.exit3

_ZNK4llvm9StringRef11starts_withES0_.exit3:       ; preds = %3, %_ZNK4llvm9StringRef11starts_withES0_.exit.thread9, %_ZNK4llvm9StringRef11starts_withES0_.exit
  %6 = phi i1 [ true, %_ZNK4llvm9StringRef11starts_withES0_.exit ], [ %5, %_ZNK4llvm9StringRef11starts_withES0_.exit.thread9 ], [ false, %3 ]
  ret i1 %6
}